target datalayout = "e-m:e-p270:32:32-p271:32:32-p272:64:64-i64:64-i128:128-f80:128-n8:16:32:64-S128"
target triple = "x86_64-pc-linux-gnu"

@progname = internal global ptr null, align 8
@silent_mode = internal global i8 0, align 1
@sig = internal global i32 2, align 4
@pid_file = internal global [1024 x i8] zeroinitializer, align 16
@stdout = external global ptr, align 8
@.str.147 = private unnamed_addr constant [34 x i8] c"%s: PID file \22%s\22 does not exist\0A\00", align 1
@.str.148 = private unnamed_addr constant [20 x i8] c"Is server running?\0A\00", align 1
@.str.158 = private unnamed_addr constant [56 x i8] c"Please terminate the single-user server and try again.\0A\00", align 1
@.str.161 = private unnamed_addr constant [67 x i8] c"%s: cannot reload server; single-user server is running (PID: %d)\0A\00", align 1
@.str.162 = private unnamed_addr constant [48 x i8] c"%s: could not send reload signal (PID: %d): %m\0A\00", align 1
@.str.163 = private unnamed_addr constant [17 x i8] c"server signaled\0A\00", align 1

; Function Attrs: nounwind uwtable
define internal void @print_msg(ptr noundef %0) #0 {
  %2 = alloca ptr, align 8
  store ptr %0, ptr %2, align 8
  %3 = load i8, ptr @silent_mode, align 1, !range !6, !noundef !7
  %4 = trunc i8 %3 to i1
  br i1 %4, label %11, label %5

5:                                                ; preds = %1
  %6 = load ptr, ptr %2, align 8
  %7 = load ptr, ptr @stdout, align 8
  %8 = call i32 @fputs(ptr noundef %6, ptr noundef %7)
  %9 = load ptr, ptr @stdout, align 8
  %10 = call i32 @fflush(ptr noundef %9)
  br label %11

11:                                               ; preds = %5, %1
  ret void
}

; Function Attrs: nounwind uwtable
define internal void @do_reload() #0 {
  %1 = alloca i32, align 4
  call void @llvm.lifetime.start.p0(i64 4, ptr %1) #10
  %2 = call i32 @get_pgpid(i1 noundef zeroext false)
  store i32 %2, ptr %1, align 4
  %3 = load i32, ptr %1, align 4
  %4 = icmp eq i32 %3, 0
  br i1 %4, label %5, label %7

5:                                                ; preds = %0
  %6 = load ptr, ptr @progname, align 8
  call void (ptr, ...) @write_stderr(ptr noundef @.str.147, ptr noundef %6, ptr noundef @pid_file)
  call void (ptr, ...) @write_stderr(ptr noundef @.str.148)
  call void @exit(i32 noundef 1) #12
  unreachable

7:                                                ; preds = %0
  %8 = load i32, ptr %1, align 4
  %9 = icmp slt i32 %8, 0
  br i1 %9, label %10, label %15

10:                                               ; preds = %7
  %11 = load i32, ptr %1, align 4
  %12 = sub i32 0, %11
  store i32 %12, ptr %1, align 4
  %13 = load ptr, ptr @progname, align 8
  %14 = load i32, ptr %1, align 4
  call void (ptr, ...) @write_stderr(ptr noundef @.str.161, ptr noundef %13, i32 noundef %14)
  call void (ptr, ...) @write_stderr(ptr noundef @.str.158)
  call void @exit(i32 noundef 1) #12
  unreachable

15:                                               ; preds = %7
  br label %16

16:                                               ; preds = %15
  %17 = load i32, ptr %1, align 4
  %18 = load i32, ptr @sig, align 4
  %19 = call i32 @kill(i32 noundef %17, i32 noundef %18) #10
  %20 = icmp ne i32 %19, 0
  br i1 %20, label %21, label %24

21:                                               ; preds = %16
  %22 = load ptr, ptr @progname, align 8
  %23 = load i32, ptr %1, align 4
  call void (ptr, ...) @write_stderr(ptr noundef @.str.162, ptr noundef %22, i32 noundef %23)
  call void @exit(i32 noundef 1) #12
  unreachable

24:                                               ; preds = %16
  call void @print_msg(ptr noundef @.str.163)
  call void @llvm.lifetime.end.p0(i64 4, ptr %1) #10
  ret void
}