; Function Attrs: nounwind uwtable
define internal fastcc void @do_reload() unnamed_addr #5 {
  %1 = tail call fastcc i32 @get_pgpid(i1 noundef zeroext false)
  %2 = icmp eq i32 %1, 0
  br i1 %2, label %3, label %5

3:                                                ; preds = %0
  %4 = load ptr, ptr @progname, align 8
  tail call void (ptr, ...) @write_stderr(ptr noundef nonnull @.str.147, ptr noundef %4, ptr noundef nonnull @pid_file)
  tail call void (ptr, ...) @write_stderr(ptr noundef nonnull @.str.148)
  tail call void @exit(i32 noundef 1) #20
  unreachable

5:                                                ; preds = %0
  %6 = icmp slt i32 %1, 0
  br i1 %6, label %7, label %10

7:                                                ; preds = %5
  %8 = sub i32 0, %1
  %9 = load ptr, ptr @progname, align 8
  tail call void (ptr, ...) @write_stderr(ptr noundef nonnull @.str.161, ptr noundef %9, i32 noundef %8)
  tail call void (ptr, ...) @write_stderr(ptr noundef nonnull @.str.158)
  tail call void @exit(i32 noundef 1) #20
  unreachable

10:                                               ; preds = %5
  %11 = load i32, ptr @sig, align 4
  %12 = tail call i32 @kill(i32 noundef %1, i32 noundef %11) #17
  %.not = icmp eq i32 %12, 0
  br i1 %.not, label %15, label %13

13:                                               ; preds = %10
  %14 = load ptr, ptr @progname, align 8
  tail call void (ptr, ...) @write_stderr(ptr noundef nonnull @.str.162, ptr noundef %14, i32 noundef %1)
  tail call void @exit(i32 noundef 1) #20
  unreachable

15:                                               ; preds = %10
  %.b1.i = load i1, ptr @silent_mode, align 1
  br i1 %.b1.i, label %print_msg.exit, label %16

16:                                               ; preds = %15
  %17 = load ptr, ptr @stdout, align 8
  %18 = tail call i64 @fwrite(ptr nonnull @.str.163, i64 16, i64 1, ptr %17)
  %19 = load ptr, ptr @stdout, align 8
  %20 = tail call i32 @fflush(ptr noundef %19)
  br label %print_msg.exit

print_msg.exit:                                   ; preds = %15, %16
  ret void
}